target datalayout = "e-m:e-p270:32:32-p271:32:32-p272:64:64-i64:64-i128:128-f80:128-n8:16:32:64-S128"
target triple = "x86_64-pc-linux-gnu"

%struct.dt_dbus_t = type { i32, ptr, i32, i32, ptr }

; Function Attrs: nounwind uwtable
define void @dt_dbus_destroy(ptr noundef %0) #0 {
  %2 = alloca ptr, align 8
  store ptr %0, ptr %2, align 8, !tbaa !6
  %3 = load ptr, ptr %2, align 8, !tbaa !6
  %4 = icmp ne ptr %3, null
  br i1 %4, label %6, label %5

5:                                                ; preds = %1
  br label %30

6:                                                ; preds = %1
  %7 = load ptr, ptr %2, align 8, !tbaa !6
  %8 = getelementptr inbounds nuw %struct.dt_dbus_t, ptr %7, i32 0, i32 2
  %9 = load i32, ptr %8, align 8, !tbaa !16
  call void @g_bus_unown_name(i32 noundef %9)
  %10 = load ptr, ptr %2, align 8, !tbaa !6
  %11 = getelementptr inbounds nuw %struct.dt_dbus_t, ptr %10, i32 0, i32 1
  %12 = load ptr, ptr %11, align 8, !tbaa !11
  %13 = icmp ne ptr %12, null
  br i1 %13, label %14, label %18

14:                                               ; preds = %6
  %15 = load ptr, ptr %2, align 8, !tbaa !6
  %16 = getelementptr inbounds nuw %struct.dt_dbus_t, ptr %15, i32 0, i32 1
  %17 = load ptr, ptr %16, align 8, !tbaa !11
  call void @g_dbus_node_info_unref(ptr noundef %17)
  br label %18

18:                                               ; preds = %14, %6
  %19 = load ptr, ptr %2, align 8, !tbaa !6
  %20 = getelementptr inbounds nuw %struct.dt_dbus_t, ptr %19, i32 0, i32 4
  %21 = load ptr, ptr %20, align 8, !tbaa !17
  %22 = icmp ne ptr %21, null
  br i1 %22, label %23, label %28

23:                                               ; preds = %18
  %24 = load ptr, ptr %2, align 8, !tbaa !6
  %25 = getelementptr inbounds nuw %struct.dt_dbus_t, ptr %24, i32 0, i32 4
  %26 = load ptr, ptr %25, align 8, !tbaa !17
  %27 = call ptr @g_type_check_instance_cast(ptr noundef %26, i64 noundef 80)
  call void @g_object_unref(ptr noundef %27)
  br label %28

28:                                               ; preds = %23, %18
  %29 = load ptr, ptr %2, align 8, !tbaa !6
  call void @g_free(ptr noundef %29)
  br label %30

30:                                               ; preds = %28, %5
  ret void
}