; Function Attrs: nounwind uwtable
define void @dt_dbus_destroy(ptr noundef %0) local_unnamed_addr #0 {
  %.not = icmp eq ptr %0, null
  br i1 %.not, label %14, label %2

2:                                                ; preds = %1
  %3 = getelementptr inbounds nuw i8, ptr %0, i64 16
  %4 = load i32, ptr %3, align 8, !tbaa !14
  tail call void @g_bus_unown_name(i32 noundef %4) #8
  %5 = getelementptr inbounds nuw i8, ptr %0, i64 8
  %6 = load ptr, ptr %5, align 8, !tbaa !6
  %.not9 = icmp eq ptr %6, null
  br i1 %.not9, label %8, label %7

7:                                                ; preds = %2
  tail call void @g_dbus_node_info_unref(ptr noundef nonnull %6) #8
  br label %8

8:                                                ; preds = %7, %2
  %9 = getelementptr inbounds nuw i8, ptr %0, i64 24
  %10 = load ptr, ptr %9, align 8, !tbaa !15
  %.not10 = icmp eq ptr %10, null
  br i1 %.not10, label %13, label %11

11:                                               ; preds = %8
  %12 = tail call ptr @g_type_check_instance_cast(ptr noundef nonnull %10, i64 noundef 80) #8
  tail call void @g_object_unref(ptr noundef %12) #8
  br label %13

13:                                               ; preds = %11, %8
  tail call void @g_free(ptr noundef nonnull %0) #8
  br label %14

14:                                               ; preds = %1, %13
  ret void
}